target datalayout = "e-m:e-p270:32:32-p271:32:32-p272:64:64-i64:64-i128:128-f80:128-n8:16:32:64-S128"
target triple = "x86_64-pc-linux-gnu"

%struct.string_list = type { ptr, i64, i64, i8, ptr }
%struct.string_list_item = type { ptr, ptr }

; Function Attrs: nounwind uwtable
define dso_local void @string_list_clear_func(ptr noundef %0, ptr noundef %1) #0 {
  %3 = alloca ptr, align 8
  %4 = alloca ptr, align 8
  %5 = alloca i32, align 4
  store ptr %0, ptr %3, align 8, !tbaa !4
  store ptr %1, ptr %4, align 8, !tbaa !25
  %6 = load ptr, ptr %3, align 8, !tbaa !4
  %7 = getelementptr inbounds nuw %struct.string_list, ptr %6, i32 0, i32 0
  %8 = load ptr, ptr %7, align 8, !tbaa !13
  %9 = icmp ne ptr %8, null
  br i1 %9, label %10, label %75

10:                                               ; preds = %2
  call void @llvm.lifetime.start.p0(i64 4, ptr %5) #9
  %11 = load ptr, ptr %4, align 8, !tbaa !25
  %12 = icmp ne ptr %11, null
  br i1 %12, label %13, label %43

13:                                               ; preds = %10
  store i32 0, ptr %5, align 4, !tbaa !11
  br label %14

14:                                               ; preds = %39, %13
  %15 = load i32, ptr %5, align 4, !tbaa !11
  %16 = sext i32 %15 to i64
  %17 = load ptr, ptr %3, align 8, !tbaa !4
  %18 = getelementptr inbounds nuw %struct.string_list, ptr %17, i32 0, i32 1
  %19 = load i64, ptr %18, align 8, !tbaa !17
  %20 = icmp ult i64 %16, %19
  br i1 %20, label %21, label %42

21:                                               ; preds = %14
  %22 = load ptr, ptr %4, align 8, !tbaa !25
  %23 = load ptr, ptr %3, align 8, !tbaa !4
  %24 = getelementptr inbounds nuw %struct.string_list, ptr %23, i32 0, i32 0
  %25 = load ptr, ptr %24, align 8, !tbaa !13
  %26 = load i32, ptr %5, align 4, !tbaa !11
  %27 = sext i32 %26 to i64
  %28 = getelementptr inbounds %struct.string_list_item, ptr %25, i64 %27
  %29 = getelementptr inbounds nuw %struct.string_list_item, ptr %28, i32 0, i32 1
  %30 = load ptr, ptr %29, align 8, !tbaa !21
  %31 = load ptr, ptr %3, align 8, !tbaa !4
  %32 = getelementptr inbounds nuw %struct.string_list, ptr %31, i32 0, i32 0
  %33 = load ptr, ptr %32, align 8, !tbaa !13
  %34 = load i32, ptr %5, align 4, !tbaa !11
  %35 = sext i32 %34 to i64
  %36 = getelementptr inbounds %struct.string_list_item, ptr %33, i64 %35
  %37 = getelementptr inbounds nuw %struct.string_list_item, ptr %36, i32 0, i32 0
  %38 = load ptr, ptr %37, align 8, !tbaa !19
  call void %22(ptr noundef %30, ptr noundef %38)
  br label %39

39:                                               ; preds = %21
  %40 = load i32, ptr %5, align 4, !tbaa !11
  %41 = add nsw i32 %40, 1
  store i32 %41, ptr %5, align 4, !tbaa !11
  br label %14, !llvm.loop !37

42:                                               ; preds = %14
  br label %43

43:                                               ; preds = %42, %10
  %44 = load ptr, ptr %3, align 8, !tbaa !4
  %45 = getelementptr inbounds nuw %struct.string_list, ptr %44, i32 0, i32 3
  %46 = load i8, ptr %45, align 8
  %47 = and i8 %46, 1
  %48 = zext i8 %47 to i32
  %49 = icmp ne i32 %48, 0
  br i1 %49, label %50, label %71

50:                                               ; preds = %43
  store i32 0, ptr %5, align 4, !tbaa !11
  br label %51

51:                                               ; preds = %67, %50
  %52 = load i32, ptr %5, align 4, !tbaa !11
  %53 = sext i32 %52 to i64
  %54 = load ptr, ptr %3, align 8, !tbaa !4
  %55 = getelementptr inbounds nuw %struct.string_list, ptr %54, i32 0, i32 1
  %56 = load i64, ptr %55, align 8, !tbaa !17
  %57 = icmp ult i64 %53, %56
  br i1 %57, label %58, label %70

58:                                               ; preds = %51
  %59 = load ptr, ptr %3, align 8, !tbaa !4
  %60 = getelementptr inbounds nuw %struct.string_list, ptr %59, i32 0, i32 0
  %61 = load ptr, ptr %60, align 8, !tbaa !13
  %62 = load i32, ptr %5, align 4, !tbaa !11
  %63 = sext i32 %62 to i64
  %64 = getelementptr inbounds %struct.string_list_item, ptr %61, i64 %63
  %65 = getelementptr inbounds nuw %struct.string_list_item, ptr %64, i32 0, i32 0
  %66 = load ptr, ptr %65, align 8, !tbaa !19
  call void @free(ptr noundef %66) #9
  br label %67

67:                                               ; preds = %58
  %68 = load i32, ptr %5, align 4, !tbaa !11
  %69 = add nsw i32 %68, 1
  store i32 %69, ptr %5, align 4, !tbaa !11
  br label %51, !llvm.loop !38

70:                                               ; preds = %51
  br label %71

71:                                               ; preds = %70, %43
  %72 = load ptr, ptr %3, align 8, !tbaa !4
  %73 = getelementptr inbounds nuw %struct.string_list, ptr %72, i32 0, i32 0
  %74 = load ptr, ptr %73, align 8, !tbaa !13
  call void @free(ptr noundef %74) #9
  call void @llvm.lifetime.end.p0(i64 4, ptr %5) #9
  br label %75

75:                                               ; preds = %71, %2
  %76 = load ptr, ptr %3, align 8, !tbaa !4
  %77 = getelementptr inbounds nuw %struct.string_list, ptr %76, i32 0, i32 0
  store ptr null, ptr %77, align 8, !tbaa !13
  %78 = load ptr, ptr %3, align 8, !tbaa !4
  %79 = getelementptr inbounds nuw %struct.string_list, ptr %78, i32 0, i32 2
  store i64 0, ptr %79, align 8, !tbaa !18
  %80 = load ptr, ptr %3, align 8, !tbaa !4
  %81 = getelementptr inbounds nuw %struct.string_list, ptr %80, i32 0, i32 1
  store i64 0, ptr %81, align 8, !tbaa !17
  ret void
}