; Function Attrs: nounwind uwtable
define dso_local void @string_list_clear_func(ptr noundef captures(none) %0, ptr noundef readonly %1) local_unnamed_addr #4 {
  %3 = load ptr, ptr %0, align 8, !tbaa !13
  %.not = icmp eq ptr %3, null
  br i1 %.not, label %25, label %4

4:                                                ; preds = %2
  %.not22 = icmp eq ptr %1, null
  br i1 %.not22, label %.loopexit25, label %.preheader24

.preheader24:                                     ; preds = %4
  %5 = getelementptr inbounds nuw i8, ptr %0, i64 8
  %6 = load i64, ptr %5, align 8, !tbaa !4
  %.not29 = icmp eq i64 %6, 0
  br i1 %.not29, label %.loopexit25, label %.lr.ph

.lr.ph:                                           ; preds = %.preheader24, %.lr.ph
  %indvars.iv = phi i64 [ %indvars.iv.next, %.lr.ph ], [ 0, %.preheader24 ]
  %7 = load ptr, ptr %0, align 8, !tbaa !13
  %8 = getelementptr inbounds nuw %struct.string_list_item, ptr %7, i64 %indvars.iv
  %9 = getelementptr inbounds nuw i8, ptr %8, i64 8
  %10 = load ptr, ptr %9, align 8, !tbaa !20
  %11 = load ptr, ptr %8, align 8, !tbaa !14
  tail call void %1(ptr noundef %10, ptr noundef %11) #11
  %indvars.iv.next = add nuw nsw i64 %indvars.iv, 1
  %12 = load i64, ptr %5, align 8, !tbaa !4
  %13 = icmp ugt i64 %12, %indvars.iv.next
  br i1 %13, label %.lr.ph, label %.loopexit25, !llvm.loop !30

.loopexit25:                                      ; preds = %.lr.ph, %.preheader24, %4
  %14 = getelementptr inbounds nuw i8, ptr %0, i64 24
  %15 = load i8, ptr %14, align 8
  %16 = and i8 %15, 1
  %.not23 = icmp eq i8 %16, 0
  br i1 %.not23, label %.loopexit, label %.preheader

.preheader:                                       ; preds = %.loopexit25
  %17 = getelementptr inbounds nuw i8, ptr %0, i64 8
  %18 = load i64, ptr %17, align 8, !tbaa !4
  %.not30 = icmp eq i64 %18, 0
  br i1 %.not30, label %.loopexit, label %.lr.ph28

.lr.ph28:                                         ; preds = %.preheader, %.lr.ph28
  %indvars.iv32 = phi i64 [ %indvars.iv.next33, %.lr.ph28 ], [ 0, %.preheader ]
  %19 = load ptr, ptr %0, align 8, !tbaa !13
  %20 = getelementptr inbounds nuw %struct.string_list_item, ptr %19, i64 %indvars.iv32
  %21 = load ptr, ptr %20, align 8, !tbaa !14
  tail call void @free(ptr noundef %21) #11
  %indvars.iv.next33 = add nuw nsw i64 %indvars.iv32, 1
  %22 = load i64, ptr %17, align 8, !tbaa !4
  %23 = icmp ugt i64 %22, %indvars.iv.next33
  br i1 %23, label %.lr.ph28, label %.loopexit, !llvm.loop !31

.loopexit:                                        ; preds = %.lr.ph28, %.preheader, %.loopexit25
  %24 = load ptr, ptr %0, align 8, !tbaa !13
  tail call void @free(ptr noundef %24) #11
  br label %25

25:                                               ; preds = %.loopexit, %2
  tail call void @llvm.memset.p0.i64(ptr noundef nonnull align 8 dereferenceable(24) %0, i8 0, i64 24, i1 false)
  ret void
}